target datalayout = "e-m:e-p270:32:32-p271:32:32-p272:64:64-i64:64-i128:128-f80:128-n8:16:32:64-S128"
target triple = "x86_64-unknown-linux-gnu"

%struct.CoMutex = type { i32, ptr, %struct.anon.8, %struct.anon.8, i32, i32, ptr }
%struct.anon.8 = type { ptr }

@.str.125 = private unnamed_addr constant [103 x i8] c"/home/dtcxzyw/WorkSpace/Projects/compilers/llvm-opt-benchmark/bench/qemu/qemu/include/qemu/coroutine.h\00", align 1
@__func__.qemu_co_mutex_assert_locked = private unnamed_addr constant [28 x i8] c"qemu_co_mutex_assert_locked\00", align 1
@.str.126 = private unnamed_addr constant [71 x i8] c"qatomic_read(&mutex->locked) && mutex->holder == qemu_coroutine_self()\00", align 1
@__PRETTY_FUNCTION__.qemu_co_mutex_assert_locked = private unnamed_addr constant [44 x i8] c"void qemu_co_mutex_assert_locked(CoMutex *)\00", align 1

; Function Attrs: nounwind sspstrong uwtable
define internal void @qemu_co_mutex_assert_locked(ptr noundef %mutex) #0 {
entry:
  %mutex.addr = alloca ptr, align 8
  %tmp = alloca i32, align 4
  %atomic-temp = alloca i32, align 4
  store ptr %mutex, ptr %mutex.addr, align 8
  br label %while.cond

while.cond:                                       ; preds = %do.end, %entry
  br i1 false, label %while.body, label %while.end

while.body:                                       ; preds = %while.cond
  br label %do.body

do.body:                                          ; preds = %while.body
  call void @g_assertion_message_expr(ptr noundef null, ptr noundef @.str.125, i32 noundef 83, ptr noundef @__func__.qemu_co_mutex_assert_locked, ptr noundef null) #14
  unreachable

do.end:                                           ; No predecessors!
  br label %while.cond

while.end:                                        ; preds = %while.cond
  %0 = load ptr, ptr %mutex.addr, align 8
  %locked = getelementptr inbounds %struct.CoMutex, ptr %0, i32 0, i32 0
  %1 = load atomic i32, ptr %locked monotonic, align 8
  store i32 %1, ptr %atomic-temp, align 4
  %2 = load i32, ptr %atomic-temp, align 4
  store i32 %2, ptr %tmp, align 4
  %3 = load i32, ptr %tmp, align 4
  %tobool = icmp ne i32 %3, 0
  br i1 %tobool, label %land.lhs.true, label %if.else

land.lhs.true:                                    ; preds = %while.end
  %4 = load ptr, ptr %mutex.addr, align 8
  %holder = getelementptr inbounds %struct.CoMutex, ptr %4, i32 0, i32 6
  %5 = load ptr, ptr %holder, align 8
  %call = call ptr @qemu_coroutine_self()
  %cmp = icmp eq ptr %5, %call
  br i1 %cmp, label %if.then, label %if.else

if.then:                                          ; preds = %land.lhs.true
  br label %if.end

if.else:                                          ; preds = %land.lhs.true, %while.end
  call void @__assert_fail(ptr noundef @.str.126, ptr noundef @.str.125, i32 noundef 84, ptr noundef @__PRETTY_FUNCTION__.qemu_co_mutex_assert_locked) #10
  unreachable

if.end:                                           ; preds = %if.then
  ret void
}