; Function Attrs: nounwind sspstrong uwtable
define internal void @qemu_co_mutex_assert_locked(ptr noundef readonly captures(none) %mutex) #0 {
entry:
  %0 = load atomic i32, ptr %mutex monotonic, align 8
  %tobool.not = icmp eq i32 %0, 0
  br i1 %tobool.not, label %if.else, label %land.lhs.true

land.lhs.true:                                    ; preds = %entry
  %holder = getelementptr inbounds nuw i8, ptr %mutex, i64 40
  %1 = load ptr, ptr %holder, align 8
  %call = tail call ptr @qemu_coroutine_self() #17
  %cmp = icmp eq ptr %1, %call
  br i1 %cmp, label %if.end, label %if.else

if.else:                                          ; preds = %land.lhs.true, %entry
  tail call void @__assert_fail(ptr noundef nonnull @.str.126, ptr noundef nonnull @.str.125, i32 noundef 84, ptr noundef nonnull @__PRETTY_FUNCTION__.qemu_co_mutex_assert_locked) #15
  unreachable

if.end:                                           ; preds = %land.lhs.true
  ret void
}